; Function Attrs: mustprogress nofree norecurse nosync nounwind null_pointer_is_valid sspstrong willreturn memory(argmem: read) uwtable
define internal noundef nonnull ptr @bp_conv_get_filter_type(ptr noundef readonly captures(none) %0, i32 noundef %1) #0 {
  switch i32 %1, label %19 [
    i32 0, label %3
    i32 1, label %7
    i32 2, label %11
  ]

3:                                                ; preds = %2
  %4 = getelementptr inbounds nuw i8, ptr %0, i64 8
  %5 = load i32, ptr %4, align 8
  %6 = icmp eq i32 %5, 7
  br i1 %6, label %20, label %19

7:                                                ; preds = %2
  %8 = getelementptr inbounds nuw i8, ptr %0, i64 32
  %9 = load i32, ptr %8, align 8
  %10 = icmp eq i32 %9, 7
  br i1 %10, label %20, label %19

11:                                               ; preds = %2
  %12 = getelementptr inbounds nuw i8, ptr %0, i64 8
  %13 = load i32, ptr %12, align 8
  %14 = icmp eq i32 %13, 7
  br i1 %14, label %20, label %15

15:                                               ; preds = %11
  %16 = getelementptr inbounds nuw i8, ptr %0, i64 32
  %17 = load i32, ptr %16, align 8
  %18 = icmp eq i32 %17, 7
  br i1 %18, label %20, label %19

19:                                               ; preds = %7, %3, %2, %15
  br label %20

20:                                               ; preds = %11, %15, %7, %3, %19
  %.0 = phi ptr [ @.str.345, %19 ], [ @.str.126, %3 ], [ @.str.122, %7 ], [ @.str.128, %15 ], [ @.str.128, %11 ]
  ret ptr %.0
}